target datalayout = "e-m:e-p270:32:32-p271:32:32-p272:64:64-i64:64-i128:128-f80:128-n8:16:32:64-S128"
target triple = "x86_64-pc-linux-gnu"

%struct.verifier_context = type { ptr, ptr, %struct.SimpleStringList, i8, i8, i8, i8 }
%struct.SimpleStringList = type { ptr, ptr }
%struct.SimpleStringListCell = type { ptr, i8, [0 x i8] }

; Function Attrs: nounwind uwtable
define dso_local zeroext i1 @should_ignore_relpath(ptr noundef %0, ptr noundef %1) #0 {
  %3 = alloca i1, align 1
  %4 = alloca ptr, align 8
  %5 = alloca ptr, align 8
  %6 = alloca ptr, align 8
  %7 = alloca ptr, align 8
  %8 = alloca ptr, align 8
  %9 = alloca i32, align 4
  store ptr %0, ptr %4, align 8
  store ptr %1, ptr %5, align 8
  call void @llvm.lifetime.start.p0(i64 8, ptr %6) #14
  %10 = load ptr, ptr %4, align 8
  %11 = getelementptr inbounds nuw %struct.verifier_context, ptr %10, i32 0, i32 2
  %12 = getelementptr inbounds nuw %struct.SimpleStringList, ptr %11, i32 0, i32 0
  %13 = load ptr, ptr %12, align 8
  store ptr %13, ptr %6, align 8
  br label %14

14:                                               ; preds = %62, %2
  %15 = load ptr, ptr %6, align 8
  %16 = icmp ne ptr %15, null
  br i1 %16, label %17, label %66

17:                                               ; preds = %14
  call void @llvm.lifetime.start.p0(i64 8, ptr %7) #14
  %18 = load ptr, ptr %5, align 8
  store ptr %18, ptr %7, align 8
  call void @llvm.lifetime.start.p0(i64 8, ptr %8) #14
  %19 = load ptr, ptr %6, align 8
  %20 = getelementptr inbounds nuw %struct.SimpleStringListCell, ptr %19, i32 0, i32 2
  %21 = getelementptr inbounds [0 x i8], ptr %20, i64 0, i64 0
  store ptr %21, ptr %8, align 8
  br label %22

22:                                               ; preds = %37, %17
  %23 = load ptr, ptr %8, align 8
  %24 = load i8, ptr %23, align 1
  %25 = sext i8 %24 to i32
  %26 = icmp ne i32 %25, 0
  br i1 %26, label %27, label %35

27:                                               ; preds = %22
  %28 = load ptr, ptr %7, align 8
  %29 = load i8, ptr %28, align 1
  %30 = sext i8 %29 to i32
  %31 = load ptr, ptr %8, align 8
  %32 = load i8, ptr %31, align 1
  %33 = sext i8 %32 to i32
  %34 = icmp eq i32 %30, %33
  br label %35

35:                                               ; preds = %27, %22
  %36 = phi i1 [ false, %22 ], [ %34, %27 ]
  br i1 %36, label %37, label %42

37:                                               ; preds = %35
  %38 = load ptr, ptr %7, align 8
  %39 = getelementptr inbounds nuw i8, ptr %38, i32 1
  store ptr %39, ptr %7, align 8
  %40 = load ptr, ptr %8, align 8
  %41 = getelementptr inbounds nuw i8, ptr %40, i32 1
  store ptr %41, ptr %8, align 8
  br label %22, !llvm.loop !15

42:                                               ; preds = %35
  %43 = load ptr, ptr %8, align 8
  %44 = load i8, ptr %43, align 1
  %45 = sext i8 %44 to i32
  %46 = icmp eq i32 %45, 0
  br i1 %46, label %47, label %58

47:                                               ; preds = %42
  %48 = load ptr, ptr %7, align 8
  %49 = load i8, ptr %48, align 1
  %50 = sext i8 %49 to i32
  %51 = icmp eq i32 %50, 0
  br i1 %51, label %57, label %52

52:                                               ; preds = %47
  %53 = load ptr, ptr %7, align 8
  %54 = load i8, ptr %53, align 1
  %55 = sext i8 %54 to i32
  %56 = icmp eq i32 %55, 47
  br i1 %56, label %57, label %58

57:                                               ; preds = %52, %47
  store i1 true, ptr %3, align 1
  store i32 1, ptr %9, align 4
  br label %59

58:                                               ; preds = %52, %42
  store i32 0, ptr %9, align 4
  br label %59

59:                                               ; preds = %58, %57
  call void @llvm.lifetime.end.p0(i64 8, ptr %8) #14
  call void @llvm.lifetime.end.p0(i64 8, ptr %7) #14
  %60 = load i32, ptr %9, align 4
  switch i32 %60, label %67 [
    i32 0, label %61
  ]

61:                                               ; preds = %59
  br label %62

62:                                               ; preds = %61
  %63 = load ptr, ptr %6, align 8
  %64 = getelementptr inbounds nuw %struct.SimpleStringListCell, ptr %63, i32 0, i32 0
  %65 = load ptr, ptr %64, align 8
  store ptr %65, ptr %6, align 8
  br label %14, !llvm.loop !16

66:                                               ; preds = %14
  store i1 false, ptr %3, align 1
  store i32 1, ptr %9, align 4
  br label %67

67:                                               ; preds = %66, %59
  call void @llvm.lifetime.end.p0(i64 8, ptr %6) #14
  %68 = load i1, ptr %3, align 1
  ret i1 %68
}