; Function Attrs: nofree norecurse nosync nounwind memory(read, inaccessiblemem: none) uwtable
define dso_local noundef zeroext i1 @should_ignore_relpath(ptr noundef readonly captures(none) %0, ptr noundef readonly captures(none) %1) local_unnamed_addr #12 {
  %3 = getelementptr inbounds nuw i8, ptr %0, i64 16
  %.01627 = load ptr, ptr %3, align 8
  %.not28.not = icmp eq ptr %.01627, null
  br i1 %.not28.not, label %._crit_edge33, label %.lr.ph32

.lr.ph32:                                         ; preds = %2, %.critedge22
  %.01629 = phi ptr [ %.016, %.critedge22 ], [ %.01627, %2 ]
  %4 = getelementptr inbounds nuw i8, ptr %.01629, i64 9
  %5 = load i8, ptr %4, align 1
  %.not2024 = icmp eq i8 %5, 0
  br i1 %.not2024, label %._crit_edge, label %.lr.ph

.lr.ph:                                           ; preds = %.lr.ph32, %9
  %6 = phi i8 [ %12, %9 ], [ %5, %.lr.ph32 ]
  %.01426 = phi ptr [ %11, %9 ], [ %4, %.lr.ph32 ]
  %.01525 = phi ptr [ %10, %9 ], [ %1, %.lr.ph32 ]
  %7 = load i8, ptr %.01525, align 1
  %8 = icmp eq i8 %7, %6
  br i1 %8, label %9, label %.critedge22

9:                                                ; preds = %.lr.ph
  %10 = getelementptr inbounds nuw i8, ptr %.01525, i64 1
  %11 = getelementptr inbounds nuw i8, ptr %.01426, i64 1
  %12 = load i8, ptr %11, align 1
  %.not20 = icmp eq i8 %12, 0
  br i1 %.not20, label %._crit_edge, label %.lr.ph, !llvm.loop !9

._crit_edge:                                      ; preds = %9, %.lr.ph32
  %.015.lcssa = phi ptr [ %1, %.lr.ph32 ], [ %10, %9 ]
  %13 = load i8, ptr %.015.lcssa, align 1
  switch i8 %13, label %.critedge22 [
    i8 0, label %._crit_edge33
    i8 47, label %._crit_edge33
  ]

.critedge22:                                      ; preds = %.lr.ph, %._crit_edge
  %.016 = load ptr, ptr %.01629, align 8
  %.not.not = icmp eq ptr %.016, null
  br i1 %.not.not, label %._crit_edge33, label %.lr.ph32, !llvm.loop !10

._crit_edge33:                                    ; preds = %._crit_edge, %._crit_edge, %.critedge22, %2
  %.not.lcssa = phi i1 [ false, %2 ], [ false, %.critedge22 ], [ true, %._crit_edge ], [ true, %._crit_edge ]
  ret i1 %.not.lcssa
}